target datalayout = "e-m:e-p270:32:32-p271:32:32-p272:64:64-i64:64-i128:128-f80:128-n8:16:32:64-S128"
target triple = "x86_64-pc-linux-gnu"

%struct.timespec = type { i64, i64 }
%struct.timeval = type { i64, i64 }

; Function Attrs: nounwind sspstrong uwtable
define internal { i64, i64 } @time_timeval(i64 noundef %0, i32 noundef %1) #0 {
  %3 = alloca %struct.timeval, align 8
  %4 = alloca i64, align 8
  %5 = alloca i32, align 4
  %6 = alloca %struct.timespec, align 8
  %7 = alloca %struct.timespec, align 8
  store i64 %0, ptr %4, align 8, !tbaa !11
  store i32 %1, ptr %5, align 4, !tbaa !20
  call void @llvm.lifetime.start.p0(i64 16, ptr %6) #22
  call void @llvm.lifetime.start.p0(i64 16, ptr %7) #22
  %8 = load i64, ptr %4, align 8, !tbaa !11
  %9 = load i32, ptr %5, align 4, !tbaa !20
  %10 = call { i64, i64 } @time_timespec(i64 noundef %8, i32 noundef %9)
  %11 = getelementptr inbounds nuw { i64, i64 }, ptr %7, i32 0, i32 0
  %12 = extractvalue { i64, i64 } %10, 0
  store i64 %12, ptr %11, align 8
  %13 = getelementptr inbounds nuw { i64, i64 }, ptr %7, i32 0, i32 1
  %14 = extractvalue { i64, i64 } %10, 1
  store i64 %14, ptr %13, align 8
  call void @llvm.memcpy.p0.p0.i64(ptr align 8 %6, ptr align 8 %7, i64 16, i1 false), !tbaa.struct !39
  call void @llvm.lifetime.end.p0(i64 16, ptr %7) #22
  %15 = getelementptr inbounds nuw %struct.timespec, ptr %6, i32 0, i32 0
  %16 = load i64, ptr %15, align 8, !tbaa !22
  %17 = getelementptr inbounds nuw %struct.timeval, ptr %3, i32 0, i32 0
  store i64 %16, ptr %17, align 8, !tbaa !40
  %18 = getelementptr inbounds nuw %struct.timespec, ptr %6, i32 0, i32 1
  %19 = load i64, ptr %18, align 8, !tbaa !24
  %20 = sdiv i64 %19, 1000
  %21 = trunc i64 %20 to i32
  %22 = sext i32 %21 to i64
  %23 = getelementptr inbounds nuw %struct.timeval, ptr %3, i32 0, i32 1
  store i64 %22, ptr %23, align 8, !tbaa !42
  call void @llvm.lifetime.end.p0(i64 16, ptr %6) #22
  %24 = load { i64, i64 }, ptr %3, align 8
  ret { i64, i64 } %24
}

; Function Attrs: nounwind sspstrong uwtable
define dso_local { i64, i64 } @rb_time_interval(i64 noundef %0) #0 {
  %2 = alloca %struct.timeval, align 8
  %3 = alloca i64, align 8
  store i64 %0, ptr %3, align 8, !tbaa !11
  %4 = load i64, ptr %3, align 8, !tbaa !11
  %5 = call { i64, i64 } @time_timeval(i64 noundef %4, i32 noundef 1)
  %6 = getelementptr inbounds nuw { i64, i64 }, ptr %2, i32 0, i32 0
  %7 = extractvalue { i64, i64 } %5, 0
  store i64 %7, ptr %6, align 8
  %8 = getelementptr inbounds nuw { i64, i64 }, ptr %2, i32 0, i32 1
  %9 = extractvalue { i64, i64 } %5, 1
  store i64 %9, ptr %8, align 8
  %10 = load { i64, i64 }, ptr %2, align 8
  ret { i64, i64 } %10
}