; Function Attrs: nounwind sspstrong uwtable
define dso_local { i64, i64 } @rb_time_interval(i64 noundef %0) local_unnamed_addr #1 {
  %2 = tail call fastcc { i64, i64 } @time_timespec(i64 noundef %0, i32 noundef 1)
  %3 = extractvalue { i64, i64 } %2, 1
  %4 = sdiv i64 %3, 1000
  %sext.i = shl i64 %4, 32
  %5 = ashr exact i64 %sext.i, 32
  %.fca.1.insert.i = insertvalue { i64, i64 } %2, i64 %5, 1
  ret { i64, i64 } %.fca.1.insert.i
}